target datalayout = "e-m:e-p270:32:32-p271:32:32-p272:64:64-i64:64-i128:128-f80:128-n8:16:32:64-S128"
target triple = "x86_64-pc-linux-gnu"

%struct.rb_vm_struct = type { i64, %struct.anon, ptr, i64, %struct.ccan_list_head, i32, i8, i64, ptr, [5 x i64], i64, i64, i64, i64, i64, i64, i64, i64, i64, ptr, ptr, ptr, %struct.anon.3, ptr, i32, %struct.ccan_list_head, %union.pthread_mutex_t, i64, i64, i64, i64, i32, %struct.anon.4, ptr, ptr, ptr, ptr, ptr, ptr, ptr, ptr, i64, [1023 x ptr], %struct.anon.5 }
%struct.anon = type { %struct.ccan_list_head, i32, i32, ptr, ptr, %struct.anon.0, %struct.anon.2 }
%struct.anon.0 = type { %union.pthread_mutex_t, ptr, i32, %union.pthread_cond_t, i8 }
%union.pthread_cond_t = type { %struct.__pthread_cond_s }
%struct.__pthread_cond_s = type { %union.__atomic_wide_counter, %union.__atomic_wide_counter, [2 x i32], [2 x i32], i32, i32, [2 x i32] }
%union.__atomic_wide_counter = type { i64 }
%struct.anon.2 = type { %union.pthread_mutex_t, ptr, i8, %union.pthread_cond_t, i32, i32, i32, i32, %struct.ccan_list_head, i32, %struct.ccan_list_head, %struct.ccan_list_head, %struct.ccan_list_head, i8, %union.pthread_cond_t, %union.pthread_cond_t, i8, i32, i32 }
%struct.anon.3 = type { [65 x i64] }
%struct.ccan_list_head = type { %struct.ccan_list_node }
%struct.ccan_list_node = type { ptr, ptr }
%union.pthread_mutex_t = type { %struct.__pthread_mutex_s }
%struct.__pthread_mutex_s = type { i32, i32, i32, i32, i32, i16, i16, %struct.__pthread_internal_list }
%struct.__pthread_internal_list = type { ptr, ptr }
%struct.anon.4 = type { ptr, ptr }
%struct.anon.5 = type { i64, i64, i64, i64 }

@ruby_current_vm_ptr = external global ptr, align 8

; Function Attrs: inlinehint nounwind sspstrong willreturn memory(none) uwtable
define internal zeroext i1 @RB_UNDEF_P(i64 noundef %0) #6 {
  %2 = alloca i64, align 8
  store i64 %0, ptr %2, align 8, !tbaa !22
  %3 = load i64, ptr %2, align 8, !tbaa !22
  %4 = icmp eq i64 %3, 36
  ret i1 %4
}

; Function Attrs: inlinehint nounwind sspstrong uwtable
define internal ptr @rb_current_vm() #5 {
  %1 = load ptr, ptr @ruby_current_vm_ptr, align 8, !tbaa !58
  ret ptr %1
}

; Function Attrs: nounwind sspstrong uwtable
define hidden i32 @rb_signal_exec(ptr noundef %0, i32 noundef %1) #1 {
  %3 = alloca i32, align 4
  %4 = alloca ptr, align 8
  %5 = alloca i32, align 4
  %6 = alloca ptr, align 8
  %7 = alloca i64, align 8
  %8 = alloca i32, align 4
  store ptr %0, ptr %4, align 8, !tbaa !85
  store i32 %1, ptr %5, align 4, !tbaa !7
  call void @llvm.lifetime.start.p0(i64 8, ptr %6) #22
  %9 = call ptr @rb_current_vm()
  store ptr %9, ptr %6, align 8, !tbaa !58
  call void @llvm.lifetime.start.p0(i64 8, ptr %7) #22
  %10 = load ptr, ptr %6, align 8, !tbaa !58
  %11 = getelementptr inbounds nuw %struct.rb_vm_struct, ptr %10, i32 0, i32 22
  %12 = getelementptr inbounds nuw %struct.anon.3, ptr %11, i32 0, i32 0
  %13 = load i32, ptr %5, align 4, !tbaa !7
  %14 = sext i32 %13 to i64
  %15 = getelementptr [65 x i64], ptr %12, i64 0, i64 %14
  %16 = load i64, ptr %15, align 8, !tbaa !22
  store i64 %16, ptr %7, align 8, !tbaa !22
  %17 = load i64, ptr %7, align 8, !tbaa !22
  %18 = icmp eq i64 %17, 0
  br i1 %18, label %19, label %26

19:                                               ; preds = %2
  %20 = load i32, ptr %5, align 4, !tbaa !7
  switch i32 %20, label %25 [
    i32 2, label %21
    i32 1, label %22
    i32 3, label %22
    i32 15, label %22
    i32 14, label %22
    i32 10, label %22
    i32 12, label %22
  ]

21:                                               ; preds = %19
  call void @rb_interrupt() #27
  unreachable

22:                                               ; preds = %19, %19, %19, %19, %19, %19
  %23 = load ptr, ptr %4, align 8, !tbaa !85
  %24 = load i32, ptr %5, align 4, !tbaa !7
  call void @rb_threadptr_signal_raise(ptr noundef %23, i32 noundef %24)
  br label %25

25:                                               ; preds = %19, %22
  br label %36

26:                                               ; preds = %2
  %27 = load i64, ptr %7, align 8, !tbaa !22
  %28 = call zeroext i1 @RB_UNDEF_P(i64 noundef %27) #28
  br i1 %28, label %29, label %31

29:                                               ; preds = %26
  %30 = load ptr, ptr %4, align 8, !tbaa !85
  call void @rb_threadptr_signal_exit(ptr noundef %30)
  br label %35

31:                                               ; preds = %26
  %32 = load i64, ptr %7, align 8, !tbaa !22
  %33 = load i32, ptr %5, align 4, !tbaa !7
  %34 = call i32 @signal_exec(i64 noundef %32, i32 noundef %33)
  store i32 %34, ptr %3, align 4
  store i32 1, ptr %8, align 4
  br label %37

35:                                               ; preds = %29
  br label %36

36:                                               ; preds = %35, %25
  store i32 0, ptr %3, align 4
  store i32 1, ptr %8, align 4
  br label %37

37:                                               ; preds = %36, %31
  call void @llvm.lifetime.end.p0(i64 8, ptr %7) #22
  call void @llvm.lifetime.end.p0(i64 8, ptr %6) #22
  %38 = load i32, ptr %3, align 4
  ret i32 %38
}