; Function Attrs: nounwind sspstrong uwtable
define hidden range(i32 0, 2) i32 @rb_signal_exec(ptr noundef %0, i32 noundef %1) local_unnamed_addr #1 {
  %3 = load ptr, ptr @ruby_current_vm_ptr, align 8, !tbaa !14
  %4 = getelementptr inbounds nuw i8, ptr %3, i64 664
  %5 = sext i32 %1 to i64
  %6 = getelementptr [65 x i64], ptr %4, i64 0, i64 %5
  %7 = load i64, ptr %6, align 8, !tbaa !20
  switch i64 %7, label %12 [
    i64 0, label %8
    i64 36, label %11
  ]

8:                                                ; preds = %2
  switch i32 %1, label %14 [
    i32 2, label %9
    i32 1, label %10
    i32 3, label %10
    i32 15, label %10
    i32 14, label %10
    i32 10, label %10
    i32 12, label %10
  ]

9:                                                ; preds = %8
  tail call void @rb_interrupt() #19
  unreachable

10:                                               ; preds = %8, %8, %8, %8, %8, %8
  tail call void @rb_threadptr_signal_raise(ptr noundef %0, i32 noundef %1) #17
  br label %14

11:                                               ; preds = %2
  tail call void @rb_threadptr_signal_exit(ptr noundef %0) #17
  br label %14

12:                                               ; preds = %2
  %13 = tail call fastcc i32 @signal_exec(i64 noundef %7, i32 noundef %1)
  br label %14

14:                                               ; preds = %11, %10, %8, %12
  %.0 = phi i32 [ %13, %12 ], [ 0, %8 ], [ 0, %10 ], [ 0, %11 ]
  ret i32 %.0
}